target datalayout = "e-m:e-p270:32:32-p271:32:32-p272:64:64-i64:64-i128:128-f80:128-n8:16:32:64-S128"
target triple = "x86_64-pc-linux-gnu"

@.str.1 = private unnamed_addr constant [7 x i8] c"heap.c\00", align 1
@.str.38 = private unnamed_addr constant [39 x i8] c"generation expression is not immutable\00", align 1
@__func__.cookDefault = private unnamed_addr constant [12 x i8] c"cookDefault\00", align 1
@.str.39 = private unnamed_addr constant [63 x i8] c"column \22%s\22 is of type %s but default expression is of type %s\00", align 1
@.str.40 = private unnamed_addr constant [49 x i8] c"You will need to rewrite or cast the expression.\00", align 1

; Function Attrs: nounwind uwtable
define internal void @check_nested_generated(ptr noundef %0, ptr noundef %1) #0 {
  %3 = alloca ptr, align 8
  %4 = alloca ptr, align 8
  store ptr %0, ptr %3, align 8
  store ptr %1, ptr %4, align 8
  %5 = load ptr, ptr %4, align 8
  %6 = load ptr, ptr %3, align 8
  %7 = call zeroext i1 @check_nested_generated_walker(ptr noundef %5, ptr noundef %6)
  ret void
}

; Function Attrs: nounwind uwtable
define dso_local ptr @cookDefault(ptr noundef %0, ptr noundef %1, i32 noundef %2, i32 noundef %3, ptr noundef %4, i8 noundef signext %5) #0 {
  %7 = alloca ptr, align 8
  %8 = alloca ptr, align 8
  %9 = alloca i32, align 4
  %10 = alloca i32, align 4
  %11 = alloca ptr, align 8
  %12 = alloca i8, align 1
  %13 = alloca ptr, align 8
  %14 = alloca i32, align 4
  store ptr %0, ptr %7, align 8
  store ptr %1, ptr %8, align 8
  store i32 %2, ptr %9, align 4
  store i32 %3, ptr %10, align 4
  store ptr %4, ptr %11, align 8
  store i8 %5, ptr %12, align 1
  call void @llvm.lifetime.start.p0(i64 8, ptr %13) #10
  %15 = load ptr, ptr %7, align 8
  %16 = load ptr, ptr %8, align 8
  %17 = load i8, ptr %12, align 1
  %18 = sext i8 %17 to i32
  %19 = icmp ne i32 %18, 0
  %20 = select i1 %19, i32 43, i32 30
  %21 = call ptr @transformExpr(ptr noundef %15, ptr noundef %16, i32 noundef %20)
  store ptr %21, ptr %13, align 8
  %22 = load i8, ptr %12, align 1
  %23 = icmp ne i8 %22, 0
  br i1 %23, label %24, label %42

24:                                               ; preds = %6
  %25 = load ptr, ptr %7, align 8
  %26 = load ptr, ptr %13, align 8
  call void @check_nested_generated(ptr noundef %25, ptr noundef %26)
  %27 = load ptr, ptr %13, align 8
  %28 = call zeroext i1 @contain_mutable_functions_after_planning(ptr noundef %27)
  br i1 %28, label %29, label %41

29:                                               ; preds = %24
  br label %30

30:                                               ; preds = %29
  br i1 true, label %31, label %33

31:                                               ; preds = %30
  %32 = call zeroext i1 @errstart_cold(i32 noundef 21, ptr noundef null) #9
  br i1 %32, label %35, label %38

33:                                               ; preds = %30
  %34 = call zeroext i1 @errstart(i32 noundef 21, ptr noundef null)
  br i1 %34, label %35, label %38

35:                                               ; preds = %33, %31
  %36 = call i32 @errcode(i32 noundef 117833860)
  %37 = call i32 (ptr, ...) @errmsg(ptr noundef @.str.38)
  call void @errfinish(ptr noundef @.str.1, i32 noundef 3209, ptr noundef @__func__.cookDefault)
  br label %38

38:                                               ; preds = %35, %33, %31
  unreachable

39:                                               ; No predecessors!
  br label %40

40:                                               ; preds = %39
  br label %41

41:                                               ; preds = %40, %24
  br label %43

42:                                               ; preds = %6
  br label %43

43:                                               ; preds = %42, %41
  %44 = load i32, ptr %9, align 4
  %45 = icmp ne i32 %44, 0
  br i1 %45, label %46, label %76

46:                                               ; preds = %43
  call void @llvm.lifetime.start.p0(i64 4, ptr %14) #10
  %47 = load ptr, ptr %13, align 8
  %48 = call i32 @exprType(ptr noundef %47)
  store i32 %48, ptr %14, align 4
  %49 = load ptr, ptr %7, align 8
  %50 = load ptr, ptr %13, align 8
  %51 = load i32, ptr %14, align 4
  %52 = load i32, ptr %9, align 4
  %53 = load i32, ptr %10, align 4
  %54 = call ptr @coerce_to_target_type(ptr noundef %49, ptr noundef %50, i32 noundef %51, i32 noundef %52, i32 noundef %53, i32 noundef 1, i32 noundef 2, i32 noundef -1)
  store ptr %54, ptr %13, align 8
  %55 = load ptr, ptr %13, align 8
  %56 = icmp eq ptr %55, null
  br i1 %56, label %57, label %75

57:                                               ; preds = %46
  br label %58

58:                                               ; preds = %57
  br i1 true, label %59, label %61

59:                                               ; preds = %58
  %60 = call zeroext i1 @errstart_cold(i32 noundef 21, ptr noundef null) #9
  br i1 %60, label %63, label %72

61:                                               ; preds = %58
  %62 = call zeroext i1 @errstart(i32 noundef 21, ptr noundef null)
  br i1 %62, label %63, label %72

63:                                               ; preds = %61, %59
  %64 = call i32 @errcode(i32 noundef 67141764)
  %65 = load ptr, ptr %11, align 8
  %66 = load i32, ptr %9, align 4
  %67 = call ptr @format_type_be(i32 noundef %66)
  %68 = load i32, ptr %14, align 4
  %69 = call ptr @format_type_be(i32 noundef %68)
  %70 = call i32 (ptr, ...) @errmsg(ptr noundef @.str.39, ptr noundef %65, ptr noundef %67, ptr noundef %69)
  %71 = call i32 (ptr, ...) @errhint(ptr noundef @.str.40)
  call void @errfinish(ptr noundef @.str.1, i32 noundef 3242, ptr noundef @__func__.cookDefault)
  br label %72

72:                                               ; preds = %63, %61, %59
  unreachable

73:                                               ; No predecessors!
  br label %74

74:                                               ; preds = %73
  br label %75

75:                                               ; preds = %74, %46
  call void @llvm.lifetime.end.p0(i64 4, ptr %14) #10
  br label %76

76:                                               ; preds = %75, %43
  %77 = load ptr, ptr %7, align 8
  %78 = load ptr, ptr %13, align 8
  call void @assign_expr_collations(ptr noundef %77, ptr noundef %78)
  %79 = load ptr, ptr %13, align 8
  call void @llvm.lifetime.end.p0(i64 8, ptr %13) #10
  ret ptr %79
}