; Function Attrs: nounwind uwtable
define dso_local noundef ptr @cookDefault(ptr noundef %0, ptr noundef %1, i32 noundef %2, i32 noundef %3, ptr noundef %4, i8 noundef signext %5) local_unnamed_addr #0 {
  %.not = icmp eq i8 %5, 0
  %7 = select i1 %.not, i32 30, i32 43
  %8 = tail call ptr @transformExpr(ptr noundef %0, ptr noundef %1, i32 noundef %7) #11
  br i1 %.not, label %16, label %9

9:                                                ; preds = %6
  %10 = tail call zeroext i1 @check_nested_generated_walker(ptr noundef %8, ptr noundef %0)
  %11 = tail call zeroext i1 @contain_mutable_functions_after_planning(ptr noundef %8) #11
  br i1 %11, label %12, label %16

12:                                               ; preds = %9
  %13 = tail call zeroext i1 @errstart_cold(i32 noundef 21, ptr noundef null) #10
  tail call void @llvm.assume(i1 %13)
  %14 = tail call i32 @errcode(i32 noundef 117833860) #11
  %15 = tail call i32 (ptr, ...) @errmsg(ptr noundef nonnull @.str.38) #11
  tail call void @errfinish(ptr noundef nonnull @.str.1, i32 noundef 3209, ptr noundef nonnull @__func__.cookDefault) #11
  unreachable

16:                                               ; preds = %6, %9
  %.not23 = icmp eq i32 %2, 0
  br i1 %.not23, label %28, label %17

17:                                               ; preds = %16
  %18 = tail call i32 @exprType(ptr noundef %8) #11
  %19 = tail call ptr @coerce_to_target_type(ptr noundef %0, ptr noundef %8, i32 noundef %18, i32 noundef %2, i32 noundef %3, i32 noundef 1, i32 noundef 2, i32 noundef -1) #11
  %20 = icmp eq ptr %19, null
  br i1 %20, label %21, label %28

21:                                               ; preds = %17
  %22 = tail call zeroext i1 @errstart_cold(i32 noundef 21, ptr noundef null) #10
  tail call void @llvm.assume(i1 %22)
  %23 = tail call i32 @errcode(i32 noundef 67141764) #11
  %24 = tail call ptr @format_type_be(i32 noundef %2) #11
  %25 = tail call ptr @format_type_be(i32 noundef %18) #11
  %26 = tail call i32 (ptr, ...) @errmsg(ptr noundef nonnull @.str.39, ptr noundef %4, ptr noundef %24, ptr noundef %25) #11
  %27 = tail call i32 (ptr, ...) @errhint(ptr noundef nonnull @.str.40) #11
  tail call void @errfinish(ptr noundef nonnull @.str.1, i32 noundef 3242, ptr noundef nonnull @__func__.cookDefault) #11
  unreachable

28:                                               ; preds = %17, %16
  %.0 = phi ptr [ %8, %16 ], [ %19, %17 ]
  tail call void @assign_expr_collations(ptr noundef %0, ptr noundef %.0) #11
  ret ptr %.0
}